target datalayout = "e-m:e-p270:32:32-p271:32:32-p272:64:64-i64:64-i128:128-f80:128-n8:16:32:64-S128"
target triple = "x86_64-pc-linux-gnu"

; Function Attrs: mustprogress uwtable
define noundef ptr @_Z19save_calloc_alignedPKcS0_immm(ptr noundef %0, ptr noundef %1, i32 noundef %2, i64 noundef %3, i64 noundef %4, i64 noundef %5) #0 {
  %7 = alloca ptr, align 8
  %8 = alloca ptr, align 8
  %9 = alloca i32, align 4
  %10 = alloca i64, align 8
  %11 = alloca i64, align 8
  %12 = alloca i64, align 8
  %13 = alloca ptr, align 8
  store ptr %0, ptr %7, align 8
  store ptr %1, ptr %8, align 8
  store i32 %2, ptr %9, align 4
  store i64 %3, ptr %10, align 8
  store i64 %4, ptr %11, align 8
  store i64 %5, ptr %12, align 8
  %14 = load ptr, ptr %7, align 8
  %15 = load ptr, ptr %8, align 8
  %16 = load i32, ptr %9, align 4
  %17 = load i64, ptr %10, align 8
  %18 = load i64, ptr %11, align 8
  %19 = load i64, ptr %12, align 8
  %20 = call noundef ptr @_Z19save_malloc_alignedPKcS0_immm(ptr noundef %14, ptr noundef %15, i32 noundef %16, i64 noundef %17, i64 noundef %18, i64 noundef %19)
  store ptr %20, ptr %13, align 8
  %21 = load ptr, ptr %13, align 8
  %22 = icmp ne ptr %21, null
  br i1 %22, label %23, label %28

23:                                               ; preds = %6
  %24 = load ptr, ptr %13, align 8
  %25 = load i64, ptr %10, align 8
  %26 = load i64, ptr %11, align 8
  %27 = mul i64 %25, %26
  call void @llvm.memset.p0.i64(ptr align 1 %24, i8 0, i64 %27, i1 false)
  br label %28

28:                                               ; preds = %23, %6
  %29 = load ptr, ptr %13, align 8
  ret ptr %29
}