; Function Attrs: mustprogress uwtable
define noundef ptr @_Z19save_calloc_alignedPKcS0_immm(ptr noundef %0, ptr noundef %1, i32 noundef %2, i64 noundef %3, i64 noundef %4, i64 noundef %5) local_unnamed_addr #0 {
  %7 = tail call noundef ptr @_Z19save_malloc_alignedPKcS0_immm(ptr noundef %0, ptr noundef %1, i32 noundef %2, i64 noundef %3, i64 noundef %4, i64 noundef %5)
  %.not = icmp eq ptr %7, null
  br i1 %.not, label %10, label %8

8:                                                ; preds = %6
  %9 = mul i64 %4, %3
  tail call void @llvm.memset.p0.i64(ptr nonnull align 1 %7, i8 0, i64 %9, i1 false)
  br label %10

10:                                               ; preds = %8, %6
  ret ptr %7
}